; Function Attrs: mustprogress nounwind uwtable
define hidden noundef zeroext i1 @_ZNK5frame26is_interpreted_frame_validEP10JavaThread(ptr noundef nonnull align 8 dereferenceable(56) %0, ptr nocapture noundef readonly %1) local_unnamed_addr #0 align 2 {
  %3 = getelementptr inbounds i8, ptr %0, i64 40
  %4 = load ptr, ptr %3, align 8
  %5 = icmp ne ptr %4, null
  %6 = ptrtoint ptr %4 to i64
  %7 = and i64 %6, 7
  %.not = icmp eq i64 %7, 0
  %or.cond = and i1 %5, %.not
  br i1 %or.cond, label %8, label %52

8:                                                ; preds = %2
  %9 = load ptr, ptr %0, align 8
  %10 = icmp ne ptr %9, null
  %11 = ptrtoint ptr %9 to i64
  %12 = and i64 %11, 7
  %.not9 = icmp eq i64 %12, 0
  %or.cond13.not18.not22 = and i1 %10, %.not9
  %13 = getelementptr inbounds i8, ptr %4, i64 -72
  %14 = icmp uge ptr %13, %9
  %or.cond15.not20 = select i1 %or.cond13.not18.not22, i1 %14, i1 false
  %.not10 = icmp ugt ptr %4, %9
  %or.cond16 = and i1 %.not10, %or.cond15.not20
  br i1 %or.cond16, label %15, label %52

15:                                               ; preds = %8
  %16 = tail call noundef ptr @_ZNK5frame29safe_interpreter_frame_methodEv(ptr noundef nonnull align 8 dereferenceable(56) %0) #8
  %17 = tail call noundef zeroext i1 @_ZN6Method15is_valid_methodEPKS_(ptr noundef %16) #8
  br i1 %17, label %18, label %52

18:                                               ; preds = %15
  %19 = load ptr, ptr %3, align 8
  %20 = getelementptr inbounds i8, ptr %0, i64 48
  %21 = load ptr, ptr %20, align 8
  %22 = ptrtoint ptr %19 to i64
  %23 = ptrtoint ptr %21 to i64
  %24 = sub i64 %22, %23
  %25 = ashr exact i64 %24, 3
  %26 = getelementptr inbounds i8, ptr %16, i64 8
  %27 = load ptr, ptr %26, align 8
  %28 = getelementptr inbounds i8, ptr %27, i64 42
  %29 = load i16, ptr %28, align 2
  %30 = zext i16 %29 to i64
  %31 = shl nuw nsw i64 %30, 3
  %32 = add nuw nsw i64 %31, 1032
  %33 = icmp sgt i64 %25, %32
  br i1 %33, label %52, label %34

34:                                               ; preds = %18
  %35 = tail call noundef ptr @_ZNK5frame21interpreter_frame_bcpEv(ptr noundef nonnull align 8 dereferenceable(56) %0) #8
  %36 = tail call noundef i32 @_ZNK6Method21validate_bci_from_bcpEPh(ptr noundef nonnull align 8 dereferenceable(88) %16, ptr noundef %35) #8
  %37 = icmp slt i32 %36, 0
  br i1 %37, label %52, label %38

38:                                               ; preds = %34
  %39 = load ptr, ptr %3, align 8
  %40 = getelementptr inbounds i8, ptr %39, i64 -48
  %41 = load ptr, ptr %40, align 8
  %42 = tail call noundef zeroext i1 @_ZN12MetaspaceObj8is_validEPKS_(ptr noundef %41) #8
  br i1 %42, label %43, label %52

43:                                               ; preds = %38
  %44 = load ptr, ptr %3, align 8
  %45 = getelementptr inbounds i8, ptr %44, i64 -56
  %46 = load i64, ptr %45, align 8
  %47 = getelementptr inbounds i64, ptr %44, i64 %46
  %48 = getelementptr inbounds i8, ptr %1, i64 824
  %49 = load ptr, ptr %48, align 8
  %50 = icmp ugt ptr %49, %47
  %51 = icmp sgt i64 %46, -1
  %spec.select.i = and i1 %51, %50
  br label %52

52:                                               ; preds = %38, %34, %18, %15, %8, %2, %43
  %.0 = phi i1 [ %spec.select.i, %43 ], [ false, %2 ], [ false, %8 ], [ false, %15 ], [ false, %18 ], [ false, %34 ], [ false, %38 ]
  ret i1 %.0
}